target datalayout = "e-m:e-p270:32:32-p271:32:32-p272:64:64-i64:64-i128:128-f80:128-n8:16:32:64-S128"
target triple = "x86_64-pc-linux-gnu"

%struct.evp_md_ctx_st = type { ptr, ptr, ptr, i64, ptr, ptr, ptr, ptr, ptr }

; Function Attrs: nounwind uwtable
define internal i32 @evp_md_ctx_reset_ex(ptr noundef %0, i32 noundef %1) #0 {
  %3 = alloca i32, align 4
  %4 = alloca ptr, align 8
  %5 = alloca i32, align 4
  store ptr %0, ptr %4, align 8, !tbaa !3
  store i32 %1, ptr %5, align 4, !tbaa !8
  %6 = load ptr, ptr %4, align 8, !tbaa !3
  %7 = icmp eq ptr %6, null
  br i1 %7, label %8, label %9

8:                                                ; preds = %2
  store i32 1, ptr %3, align 4
  br label %27

9:                                                ; preds = %2
  %10 = load ptr, ptr %4, align 8, !tbaa !3
  %11 = call i32 @EVP_MD_CTX_test_flags(ptr noundef %10, i32 noundef 1024)
  %12 = icmp ne i32 %11, 0
  br i1 %12, label %19, label %13

13:                                               ; preds = %9
  %14 = load ptr, ptr %4, align 8, !tbaa !3
  %15 = getelementptr inbounds nuw %struct.evp_md_ctx_st, ptr %14, i32 0, i32 5
  %16 = load ptr, ptr %15, align 8, !tbaa !30
  call void @EVP_PKEY_CTX_free(ptr noundef %16)
  %17 = load ptr, ptr %4, align 8, !tbaa !3
  %18 = getelementptr inbounds nuw %struct.evp_md_ctx_st, ptr %17, i32 0, i32 5
  store ptr null, ptr %18, align 8, !tbaa !30
  br label %19

19:                                               ; preds = %13, %9
  %20 = load ptr, ptr %4, align 8, !tbaa !3
  %21 = load i32, ptr %5, align 4, !tbaa !8
  call void @evp_md_ctx_clear_digest(ptr noundef %20, i32 noundef 0, i32 noundef %21)
  %22 = load i32, ptr %5, align 4, !tbaa !8
  %23 = icmp ne i32 %22, 0
  br i1 %23, label %26, label %24

24:                                               ; preds = %19
  %25 = load ptr, ptr %4, align 8, !tbaa !3
  call void @OPENSSL_cleanse(ptr noundef %25, i64 noundef 72)
  br label %26

26:                                               ; preds = %24, %19
  store i32 1, ptr %3, align 4
  br label %27

27:                                               ; preds = %26, %8
  %28 = load i32, ptr %3, align 4
  ret i32 %28
}

; Function Attrs: nounwind uwtable
define i32 @EVP_MD_CTX_reset(ptr noundef %0) #0 {
  %2 = alloca ptr, align 8
  store ptr %0, ptr %2, align 8, !tbaa !3
  %3 = load ptr, ptr %2, align 8, !tbaa !3
  %4 = call i32 @evp_md_ctx_reset_ex(ptr noundef %3, i32 noundef 0)
  ret i32 %4
}

; Function Attrs: nounwind uwtable
define i32 @EVP_DigestInit(ptr noundef %0, ptr noundef %1) #0 {
  %3 = alloca ptr, align 8
  %4 = alloca ptr, align 8
  store ptr %0, ptr %3, align 8, !tbaa !3
  store ptr %1, ptr %4, align 8, !tbaa !28
  %5 = load ptr, ptr %3, align 8, !tbaa !3
  %6 = call i32 @EVP_MD_CTX_reset(ptr noundef %5)
  %7 = load ptr, ptr %3, align 8, !tbaa !3
  %8 = load ptr, ptr %4, align 8, !tbaa !28
  %9 = call i32 @evp_md_init_internal(ptr noundef %7, ptr noundef %8, ptr noundef null, ptr noundef null)
  ret i32 %9
}