; Function Attrs: nounwind uwtable
define i32 @EVP_DigestInit(ptr noundef %0, ptr noundef %1) local_unnamed_addr #0 {
  %3 = icmp eq ptr %0, null
  br i1 %3, label %EVP_MD_CTX_reset.exit, label %4

4:                                                ; preds = %2
  %5 = tail call i32 @EVP_MD_CTX_test_flags(ptr noundef nonnull %0, i32 noundef 1024) #8
  %.not.i.i = icmp eq i32 %5, 0
  br i1 %.not.i.i, label %6, label %9

6:                                                ; preds = %4
  %7 = getelementptr inbounds nuw i8, ptr %0, i64 40
  %8 = load ptr, ptr %7, align 8, !tbaa !26
  tail call void @EVP_PKEY_CTX_free(ptr noundef %8) #8
  store ptr null, ptr %7, align 8, !tbaa !26
  br label %9

9:                                                ; preds = %6, %4
  tail call void @evp_md_ctx_clear_digest(ptr noundef nonnull %0, i32 noundef 0, i32 noundef 0)
  tail call void @OPENSSL_cleanse(ptr noundef nonnull %0, i64 noundef 72) #8
  br label %EVP_MD_CTX_reset.exit

EVP_MD_CTX_reset.exit:                            ; preds = %2, %9
  %10 = tail call fastcc i32 @evp_md_init_internal(ptr noundef %0, ptr noundef %1, ptr noundef null, ptr noundef null)
  ret i32 %10
}